#include <math.h>
#include <stdio.h>
#include <stdlib.h>
#include <string.h>

void main()
{
	char sent[999];
	int l,i,k=0;
	gets(sent);
	l=strlen(sent);
	for(i=0;i<l;i++)
	{
		if(sent[i]!=' ')
			k++;
		if(sent[i]==' '&&i!=0&&k!=0)
		{
			printf("%d,",k);
			k=0;
		}
	}
	printf("%d\n",k);
}
