; ModuleID = 'source-C-CXX/27/463.c'
source_filename = "source-C-CXX/27/463.c"
target datalayout = "e-m:e-p270:32:32-p271:32:32-p272:64:64-i64:64-f80:128-n8:16:32:64-S128"
target triple = "x86_64-pc-linux-gnu"

@.str = private unnamed_addr constant [4 x i8] c"%d,\00", align 1
@.str.1 = private unnamed_addr constant [4 x i8] c"%d\0A\00", align 1

; Function Attrs: nounwind sspstrong uwtable
define dso_local void @main() local_unnamed_addr #0 {
  %1 = alloca [999 x i8], align 16
  %2 = getelementptr inbounds [999 x i8], [999 x i8]* %1, i64 0, i64 0
  call void @llvm.lifetime.start.p0i8(i64 999, i8* nonnull %2) #5
  %3 = call i32 (i8*, ...) bitcast (i32 (...)* @gets to i32 (i8*, ...)*)(i8* nonnull %2) #5
  %4 = call i64 @strlen(i8* noundef nonnull %2) #6
  %5 = trunc i64 %4 to i32
  %6 = icmp sgt i32 %5, 0
  br i1 %6, label %7, label %28

7:                                                ; preds = %0
  %8 = and i64 %4, 4294967295
  br label %9

9:                                                ; preds = %7, %24
  %10 = phi i64 [ 0, %7 ], [ %26, %24 ]
  %11 = phi i32 [ 0, %7 ], [ %25, %24 ]
  %12 = getelementptr inbounds [999 x i8], [999 x i8]* %1, i64 0, i64 %10
  %13 = load i8, i8* %12, align 1, !tbaa !5
  %14 = icmp eq i8 %13, 32
  %15 = xor i1 %14, true
  %16 = zext i1 %15 to i32
  %17 = add nsw i32 %11, %16
  %18 = icmp ne i64 %10, 0
  %19 = select i1 %14, i1 %18, i1 false
  %20 = icmp ne i32 %17, 0
  %21 = select i1 %19, i1 %20, i1 false
  br i1 %21, label %22, label %24

22:                                               ; preds = %9
  %23 = call i32 (i8*, ...) @printf(i8* nonnull dereferenceable(1) getelementptr inbounds ([4 x i8], [4 x i8]* @.str, i64 0, i64 0), i32 %17)
  br label %24

24:                                               ; preds = %9, %22
  %25 = phi i32 [ 0, %22 ], [ %17, %9 ]
  %26 = add nuw nsw i64 %10, 1
  %27 = icmp eq i64 %26, %8
  br i1 %27, label %28, label %9, !llvm.loop !8

28:                                               ; preds = %24, %0
  %29 = phi i32 [ 0, %0 ], [ %25, %24 ]
  %30 = call i32 (i8*, ...) @printf(i8* nonnull dereferenceable(1) getelementptr inbounds ([4 x i8], [4 x i8]* @.str.1, i64 0, i64 0), i32 %29)
  call void @llvm.lifetime.end.p0i8(i64 999, i8* nonnull %2) #5
  ret void
}

; Function Attrs: argmemonly mustprogress nofree nosync nounwind willreturn
declare void @llvm.lifetime.start.p0i8(i64 immarg, i8* nocapture) #1

declare i32 @gets(...) local_unnamed_addr #2

; Function Attrs: argmemonly mustprogress nofree nounwind readonly willreturn
declare i64 @strlen(i8* nocapture) local_unnamed_addr #3

; Function Attrs: nofree nounwind
declare noundef i32 @printf(i8* nocapture noundef readonly, ...) local_unnamed_addr #4

; Function Attrs: argmemonly mustprogress nofree nosync nounwind willreturn
declare void @llvm.lifetime.end.p0i8(i64 immarg, i8* nocapture) #1


!llvm.module.flags = !{!0, !1, !2, !3}
!llvm.ident = !{!4}

!0 = !{i32 1, !"wchar_size", i32 4}
!1 = !{i32 7, !"PIC Level", i32 2}
!2 = !{i32 7, !"PIE Level", i32 2}
!3 = !{i32 7, !"uwtable", i32 1}
!4 = !{!"clang version 13.0.0"}
!5 = !{!6, !6, i64 0}
!6 = !{!"omnipotent char", !7, i64 0}
!7 = !{!"Simple C/C++ TBAA"}
!8 = distinct !{!8, !9}
!9 = !{!"llvm.loop.mustprogress"}
